; Function Attrs: mustprogress uwtable
define void @_ZN17LteRlcGraphDialog26on_dragRadioButton_toggledEb(ptr nocapture noundef nonnull align 8 dereferenceable(268) %0, i1 noundef zeroext %1) local_unnamed_addr #0 align 2 {
  %3 = alloca %class.QFlags.31, align 4
  br i1 %1, label %4, label %6

4:                                                ; preds = %2
  %5 = getelementptr inbounds i8, ptr %0, i64 144
  store i8 1, ptr %5, align 8
  br label %6

6:                                                ; preds = %4, %2
  %7 = getelementptr inbounds i8, ptr %0, i64 136
  %8 = load ptr, ptr %7, align 8
  %9 = getelementptr inbounds i8, ptr %8, i64 176
  %10 = load ptr, ptr %9, align 8
  store i32 3, ptr %3, align 4
  call void @_ZN11QCustomPlot15setInteractionsERK6QFlagsIN3QCP11InteractionEE(ptr noundef nonnull align 8 dereferenceable(513) %10, ptr noundef nonnull align 4 dereferenceable(4) %3)
  ret void
}